; ModuleID = '35/877.c'
source_filename = "35/877.c"
target datalayout = "e-m:e-p270:32:32-p271:32:32-p272:64:64-i64:64-f80:128-n8:16:32:64-S128"
target triple = "x86_64-pc-linux-gnu"

@.str = private unnamed_addr constant [6 x i8] c"%d,%d\00", align 1
@.str.1 = private unnamed_addr constant [3 x i8] c"%d\00", align 1
@.str.2 = private unnamed_addr constant [6 x i8] c"%d+%d\00", align 1
@.str.3 = private unnamed_addr constant [3 x i8] c"No\00", align 1

; Function Attrs: noinline nounwind uwtable
define dso_local void @main() #0 {
  %1 = alloca [10 x [10 x i32]], align 16
  %2 = alloca i32, align 4
  %3 = alloca i32, align 4
  %4 = alloca i32, align 4
  %5 = alloca i32, align 4
  %6 = alloca i32, align 4
  %7 = alloca i32, align 4
  %8 = alloca i32, align 4
  %9 = alloca i32, align 4
  %10 = alloca i32, align 4
  %11 = alloca i32, align 4
  %12 = bitcast [10 x [10 x i32]]* %1 to i8*
  call void @llvm.memset.p0i8.i64(i8* align 16 %12, i8 0, i64 400, i1 false)
  %13 = call i32 (i8*, ...) @__isoc99_scanf(i8* getelementptr inbounds ([6 x i8], [6 x i8]* @.str, i64 0, i64 0), i32* %2, i32* %3)
  store i32 0, i32* %4, align 4
  br label %14

14:                                               ; preds = %35, %0
  %15 = load i32, i32* %4, align 4
  %16 = load i32, i32* %2, align 4
  %17 = icmp slt i32 %15, %16
  br i1 %17, label %18, label %38

18:                                               ; preds = %14
  store i32 0, i32* %5, align 4
  br label %19

19:                                               ; preds = %31, %18
  %20 = load i32, i32* %5, align 4
  %21 = load i32, i32* %3, align 4
  %22 = icmp slt i32 %20, %21
  br i1 %22, label %23, label %34

23:                                               ; preds = %19
  %24 = load i32, i32* %4, align 4
  %25 = sext i32 %24 to i64
  %26 = getelementptr inbounds [10 x [10 x i32]], [10 x [10 x i32]]* %1, i64 0, i64 %25
  %27 = load i32, i32* %5, align 4
  %28 = sext i32 %27 to i64
  %29 = getelementptr inbounds [10 x i32], [10 x i32]* %26, i64 0, i64 %28
  %30 = call i32 (i8*, ...) @__isoc99_scanf(i8* getelementptr inbounds ([3 x i8], [3 x i8]* @.str.1, i64 0, i64 0), i32* %29)
  br label %31

31:                                               ; preds = %23
  %32 = load i32, i32* %5, align 4
  %33 = add nsw i32 %32, 1
  store i32 %33, i32* %5, align 4
  br label %19

34:                                               ; preds = %19
  br label %35

35:                                               ; preds = %34
  %36 = load i32, i32* %4, align 4
  %37 = add nsw i32 %36, 1
  store i32 %37, i32* %4, align 4
  br label %14

38:                                               ; preds = %14
  store i32 0, i32* %11, align 4
  store i32 0, i32* %4, align 4
  br label %39

39:                                               ; preds = %110, %38
  %40 = load i32, i32* %4, align 4
  %41 = load i32, i32* %2, align 4
  %42 = icmp slt i32 %40, %41
  br i1 %42, label %43, label %113

43:                                               ; preds = %39
  %44 = load i32, i32* %4, align 4
  %45 = sext i32 %44 to i64
  %46 = getelementptr inbounds [10 x [10 x i32]], [10 x [10 x i32]]* %1, i64 0, i64 %45
  %47 = getelementptr inbounds [10 x i32], [10 x i32]* %46, i64 0, i64 0
  %48 = load i32, i32* %47, align 8
  store i32 %48, i32* %8, align 4
  %49 = load i32, i32* %4, align 4
  store i32 %49, i32* %6, align 4
  store i32 0, i32* %7, align 4
  store i32 0, i32* %10, align 4
  store i32 0, i32* %5, align 4
  br label %50

50:                                               ; preds = %75, %43
  %51 = load i32, i32* %5, align 4
  %52 = load i32, i32* %3, align 4
  %53 = icmp slt i32 %51, %52
  br i1 %53, label %54, label %78

54:                                               ; preds = %50
  %55 = load i32, i32* %4, align 4
  %56 = sext i32 %55 to i64
  %57 = getelementptr inbounds [10 x [10 x i32]], [10 x [10 x i32]]* %1, i64 0, i64 %56
  %58 = load i32, i32* %5, align 4
  %59 = sext i32 %58 to i64
  %60 = getelementptr inbounds [10 x i32], [10 x i32]* %57, i64 0, i64 %59
  %61 = load i32, i32* %60, align 4
  %62 = load i32, i32* %8, align 4
  %63 = icmp sgt i32 %61, %62
  br i1 %63, label %64, label %74

64:                                               ; preds = %54
  %65 = load i32, i32* %4, align 4
  %66 = sext i32 %65 to i64
  %67 = getelementptr inbounds [10 x [10 x i32]], [10 x [10 x i32]]* %1, i64 0, i64 %66
  %68 = load i32, i32* %5, align 4
  %69 = sext i32 %68 to i64
  %70 = getelementptr inbounds [10 x i32], [10 x i32]* %67, i64 0, i64 %69
  %71 = load i32, i32* %70, align 4
  store i32 %71, i32* %8, align 4
  %72 = load i32, i32* %5, align 4
  store i32 %72, i32* %7, align 4
  %73 = load i32, i32* %4, align 4
  store i32 %73, i32* %6, align 4
  br label %74

74:                                               ; preds = %64, %54
  br label %75

75:                                               ; preds = %74
  %76 = load i32, i32* %5, align 4
  %77 = add nsw i32 %76, 1
  store i32 %77, i32* %5, align 4
  br label %50

78:                                               ; preds = %50
  store i32 0, i32* %9, align 4
  br label %79

79:                                               ; preds = %98, %78
  %80 = load i32, i32* %9, align 4
  %81 = load i32, i32* %2, align 4
  %82 = icmp slt i32 %80, %81
  br i1 %82, label %83, label %101

83:                                               ; preds = %79
  %84 = load i32, i32* %9, align 4
  %85 = sext i32 %84 to i64
  %86 = getelementptr inbounds [10 x [10 x i32]], [10 x [10 x i32]]* %1, i64 0, i64 %85
  %87 = load i32, i32* %7, align 4
  %88 = sext i32 %87 to i64
  %89 = getelementptr inbounds [10 x i32], [10 x i32]* %86, i64 0, i64 %88
  %90 = load i32, i32* %89, align 4
  %91 = load i32, i32* %8, align 4
  %92 = icmp slt i32 %90, %91
  br i1 %92, label %93, label %94

93:                                               ; preds = %83
  br label %101

94:                                               ; preds = %83
  %95 = load i32, i32* %10, align 4
  %96 = add nsw i32 %95, 1
  store i32 %96, i32* %10, align 4
  br label %97

97:                                               ; preds = %94
  br label %98

98:                                               ; preds = %97
  %99 = load i32, i32* %9, align 4
  %100 = add nsw i32 %99, 1
  store i32 %100, i32* %9, align 4
  br label %79

101:                                              ; preds = %93, %79
  %102 = load i32, i32* %10, align 4
  %103 = load i32, i32* %2, align 4
  %104 = icmp eq i32 %102, %103
  br i1 %104, label %105, label %109

105:                                              ; preds = %101
  %106 = load i32, i32* %6, align 4
  %107 = load i32, i32* %7, align 4
  %108 = call i32 (i8*, ...) @printf(i8* getelementptr inbounds ([6 x i8], [6 x i8]* @.str.2, i64 0, i64 0), i32 %106, i32 %107)
  store i32 1, i32* %11, align 4
  br label %109

109:                                              ; preds = %105, %101
  br label %110

110:                                              ; preds = %109
  %111 = load i32, i32* %4, align 4
  %112 = add nsw i32 %111, 1
  store i32 %112, i32* %4, align 4
  br label %39

113:                                              ; preds = %39
  %114 = load i32, i32* %11, align 4
  %115 = icmp eq i32 %114, 0
  br i1 %115, label %116, label %118

116:                                              ; preds = %113
  %117 = call i32 (i8*, ...) @printf(i8* getelementptr inbounds ([3 x i8], [3 x i8]* @.str.3, i64 0, i64 0))
  br label %118

118:                                              ; preds = %116, %113
  ret void
}

; Function Attrs: argmemonly nounwind willreturn
declare void @llvm.memset.p0i8.i64(i8* nocapture writeonly, i8, i64, i1 immarg) #1

declare dso_local i32 @__isoc99_scanf(i8*, ...) #2

declare dso_local i32 @printf(i8*, ...) #2


!llvm.module.flags = !{!0}
!llvm.ident = !{!1}

!0 = !{i32 1, !"wchar_size", i32 4}
!1 = !{!"clang version 10.0.0-4ubuntu1 "}
